; Function Attrs: nofree norecurse nosync nounwind memory(argmem: write) uwtable
define i32 @Gem_GroupUnpack(i32 noundef %0, ptr noundef writeonly captures(none) %1) local_unnamed_addr #12 {
  %.not10 = icmp eq i32 %0, 0
  br i1 %.not10, label %._crit_edge, label %.lr.ph

.lr.ph:                                           ; preds = %2, %8
  %.013 = phi i32 [ %.1, %8 ], [ 0, %2 ]
  %.0712 = phi i32 [ %9, %8 ], [ 0, %2 ]
  %.0811 = phi i32 [ %10, %8 ], [ %0, %2 ]
  %3 = and i32 %.0811, 1
  %.not9 = icmp eq i32 %3, 0
  br i1 %.not9, label %8, label %4

4:                                                ; preds = %.lr.ph
  %5 = add nsw i32 %.013, 1
  %6 = sext i32 %.013 to i64
  %7 = getelementptr inbounds i32, ptr %1, i64 %6
  store i32 %.0712, ptr %7, align 4, !tbaa !12
  br label %8

8:                                                ; preds = %.lr.ph, %4
  %.1 = phi i32 [ %5, %4 ], [ %.013, %.lr.ph ]
  %9 = add nuw nsw i32 %.0712, 1
  %10 = ashr i32 %.0811, 1
  %.not = icmp ult i32 %.0811, 2
  br i1 %.not, label %._crit_edge, label %.lr.ph, !llvm.loop !64

._crit_edge:                                      ; preds = %8, %2
  %.0.lcssa = phi i32 [ 0, %2 ], [ %.1, %8 ]
  ret i32 %.0.lcssa
}